
_forktest：     文件格式 elf32-i386


Disassembly of section .text:

00000000 <main>:
  printf(1, "fork test OK\n");
}

int
main(void)
{
   0:	f3 0f 1e fb          	endbr32 
   4:	55                   	push   %ebp
   5:	89 e5                	mov    %esp,%ebp
   7:	83 e4 f0             	and    $0xfffffff0,%esp
  forktest();
   a:	e8 41 00 00 00       	call   50 <forktest>
  exit();
   f:	e8 7f 03 00 00       	call   393 <exit>
  14:	66 90                	xchg   %ax,%ax
  16:	66 90                	xchg   %ax,%ax
  18:	66 90                	xchg   %ax,%ax
  1a:	66 90                	xchg   %ax,%ax
  1c:	66 90                	xchg   %ax,%ax
  1e:	66 90                	xchg   %ax,%ax

00000020 <printf>:
{
  20:	f3 0f 1e fb          	endbr32 
  24:	55                   	push   %ebp
  25:	89 e5                	mov    %esp,%ebp
  27:	53                   	push   %ebx
  28:	83 ec 10             	sub    $0x10,%esp
  2b:	8b 5d 0c             	mov    0xc(%ebp),%ebx
  write(fd, s, strlen(s));
  2e:	53                   	push   %ebx
  2f:	e8 7c 01 00 00       	call   1b0 <strlen>
  34:	83 c4 0c             	add    $0xc,%esp
  37:	50                   	push   %eax
  38:	53                   	push   %ebx
  39:	ff 75 08             	pushl  0x8(%ebp)
  3c:	e8 72 03 00 00       	call   3b3 <write>
}
  41:	8b 5d fc             	mov    -0x4(%ebp),%ebx
  44:	83 c4 10             	add    $0x10,%esp
  47:	c9                   	leave  
  48:	c3                   	ret    
  49:	8d b4 26 00 00 00 00 	lea    0x0(%esi,%eiz,1),%esi

00000050 <forktest>:
{
  50:	f3 0f 1e fb          	endbr32 
  54:	55                   	push   %ebp
  55:	89 e5                	mov    %esp,%ebp
  57:	53                   	push   %ebx
  for(n=0; n<N; n++){
  58:	31 db                	xor    %ebx,%ebx
{
  5a:	83 ec 10             	sub    $0x10,%esp
  write(fd, s, strlen(s));
  5d:	68 3c 04 00 00       	push   $0x43c
  62:	e8 49 01 00 00       	call   1b0 <strlen>
  67:	83 c4 0c             	add    $0xc,%esp
  6a:	50                   	push   %eax
  6b:	68 3c 04 00 00       	push   $0x43c
  70:	6a 01                	push   $0x1
  72:	e8 3c 03 00 00       	call   3b3 <write>
  77:	83 c4 10             	add    $0x10,%esp
  7a:	eb 15                	jmp    91 <forktest+0x41>
  7c:	8d 74 26 00          	lea    0x0(%esi,%eiz,1),%esi
    if(pid == 0)
  80:	74 58                	je     da <forktest+0x8a>
  for(n=0; n<N; n++){
  82:	83 c3 01             	add    $0x1,%ebx
  85:	81 fb e8 03 00 00    	cmp    $0x3e8,%ebx
  8b:	0f 84 83 00 00 00    	je     114 <forktest+0xc4>
    pid = fork();
  91:	e8 f5 02 00 00       	call   38b <fork>
    if(pid < 0)
  96:	85 c0                	test   %eax,%eax
  98:	79 e6                	jns    80 <forktest+0x30>
  for(; n > 0; n--){
  9a:	85 db                	test   %ebx,%ebx
  9c:	74 10                	je     ae <forktest+0x5e>
  9e:	66 90                	xchg   %ax,%ax
    if(wait() < 0){
  a0:	e8 f6 02 00 00       	call   39b <wait>
  a5:	85 c0                	test   %eax,%eax
  a7:	78 36                	js     df <forktest+0x8f>
  for(; n > 0; n--){
  a9:	83 eb 01             	sub    $0x1,%ebx
  ac:	75 f2                	jne    a0 <forktest+0x50>
  if(wait() != -1){
  ae:	e8 e8 02 00 00       	call   39b <wait>
  b3:	83 f8 ff             	cmp    $0xffffffff,%eax
  b6:	75 49                	jne    101 <forktest+0xb1>
  write(fd, s, strlen(s));
  b8:	83 ec 0c             	sub    $0xc,%esp
  bb:	68 6e 04 00 00       	push   $0x46e
  c0:	e8 eb 00 00 00       	call   1b0 <strlen>
  c5:	83 c4 0c             	add    $0xc,%esp
  c8:	50                   	push   %eax
  c9:	68 6e 04 00 00       	push   $0x46e
  ce:	6a 01                	push   $0x1
  d0:	e8 de 02 00 00       	call   3b3 <write>
}
  d5:	8b 5d fc             	mov    -0x4(%ebp),%ebx
  d8:	c9                   	leave  
  d9:	c3                   	ret    
      exit();
  da:	e8 b4 02 00 00       	call   393 <exit>
  write(fd, s, strlen(s));
  df:	83 ec 0c             	sub    $0xc,%esp
  e2:	68 47 04 00 00       	push   $0x447
  e7:	e8 c4 00 00 00       	call   1b0 <strlen>
  ec:	83 c4 0c             	add    $0xc,%esp
  ef:	50                   	push   %eax
  f0:	68 47 04 00 00       	push   $0x447
  f5:	6a 01                	push   $0x1
  f7:	e8 b7 02 00 00       	call   3b3 <write>
      exit();
  fc:	e8 92 02 00 00       	call   393 <exit>
    printf(1, "wait got too many\n");
 101:	52                   	push   %edx
 102:	52                   	push   %edx
 103:	68 5b 04 00 00       	push   $0x45b
 108:	6a 01                	push   $0x1
 10a:	e8 11 ff ff ff       	call   20 <printf>
    exit();
 10f:	e8 7f 02 00 00       	call   393 <exit>
    printf(1, "fork claimed to work N times!\n", N);
 114:	50                   	push   %eax
 115:	68 e8 03 00 00       	push   $0x3e8
 11a:	68 7c 04 00 00       	push   $0x47c
 11f:	6a 01                	push   $0x1
 121:	e8 fa fe ff ff       	call   20 <printf>
    exit();
 126:	e8 68 02 00 00       	call   393 <exit>
 12b:	66 90                	xchg   %ax,%ax
 12d:	66 90                	xchg   %ax,%ax
 12f:	90                   	nop

00000130 <strcpy>:
#include "user.h"
#include "x86.h"

char*
strcpy(char *s, const char *t)
{
 130:	f3 0f 1e fb          	endbr32 
 134:	55                   	push   %ebp
  char *os;

  os = s;
  while((*s++ = *t++) != 0)
 135:	31 c0                	xor    %eax,%eax
{
 137:	89 e5                	mov    %esp,%ebp
 139:	53                   	push   %ebx
 13a:	8b 4d 08             	mov    0x8(%ebp),%ecx
 13d:	8b 5d 0c             	mov    0xc(%ebp),%ebx
  while((*s++ = *t++) != 0)
 140:	0f b6 14 03          	movzbl (%ebx,%eax,1),%edx
 144:	88 14 01             	mov    %dl,(%ecx,%eax,1)
 147:	83 c0 01             	add    $0x1,%eax
 14a:	84 d2                	test   %dl,%dl
 14c:	75 f2                	jne    140 <strcpy+0x10>
    ;
  return os;
}
 14e:	8b 5d fc             	mov    -0x4(%ebp),%ebx
 151:	89 c8                	mov    %ecx,%eax
 153:	c9                   	leave  
 154:	c3                   	ret    
 155:	8d b4 26 00 00 00 00 	lea    0x0(%esi,%eiz,1),%esi
 15c:	8d 74 26 00          	lea    0x0(%esi,%eiz,1),%esi

00000160 <strcmp>:

int
strcmp(const char *p, const char *q)
{
 160:	f3 0f 1e fb          	endbr32 
 164:	55                   	push   %ebp
 165:	89 e5                	mov    %esp,%ebp
 167:	53                   	push   %ebx
 168:	8b 4d 08             	mov    0x8(%ebp),%ecx
 16b:	8b 55 0c             	mov    0xc(%ebp),%edx
  while(*p && *p == *q)
 16e:	0f b6 01             	movzbl (%ecx),%eax
 171:	0f b6 1a             	movzbl (%edx),%ebx
 174:	84 c0                	test   %al,%al
 176:	75 19                	jne    191 <strcmp+0x31>
 178:	eb 26                	jmp    1a0 <strcmp+0x40>
 17a:	8d b6 00 00 00 00    	lea    0x0(%esi),%esi
 180:	0f b6 41 01          	movzbl 0x1(%ecx),%eax
    p++, q++;
 184:	83 c1 01             	add    $0x1,%ecx
 187:	83 c2 01             	add    $0x1,%edx
  return (uchar)*p - (uchar)*q;
 18a:	0f b6 1a             	movzbl (%edx),%ebx
  while(*p && *p == *q)
 18d:	84 c0                	test   %al,%al
 18f:	74 0f                	je     1a0 <strcmp+0x40>
 191:	38 d8                	cmp    %bl,%al
 193:	74 eb                	je     180 <strcmp+0x20>
  return (uchar)*p - (uchar)*q;
 195:	29 d8                	sub    %ebx,%eax
}
 197:	8b 5d fc             	mov    -0x4(%ebp),%ebx
 19a:	c9                   	leave  
 19b:	c3                   	ret    
 19c:	8d 74 26 00          	lea    0x0(%esi,%eiz,1),%esi
 1a0:	31 c0                	xor    %eax,%eax
  return (uchar)*p - (uchar)*q;
 1a2:	29 d8                	sub    %ebx,%eax
}
 1a4:	8b 5d fc             	mov    -0x4(%ebp),%ebx
 1a7:	c9                   	leave  
 1a8:	c3                   	ret    
 1a9:	8d b4 26 00 00 00 00 	lea    0x0(%esi,%eiz,1),%esi

000001b0 <strlen>:

uint
strlen(const char *s)
{
 1b0:	f3 0f 1e fb          	endbr32 
 1b4:	55                   	push   %ebp
 1b5:	89 e5                	mov    %esp,%ebp
 1b7:	8b 55 08             	mov    0x8(%ebp),%edx
  int n;

  for(n = 0; s[n]; n++)
 1ba:	80 3a 00             	cmpb   $0x0,(%edx)
 1bd:	74 21                	je     1e0 <strlen+0x30>
 1bf:	31 c0                	xor    %eax,%eax
 1c1:	8d b4 26 00 00 00 00 	lea    0x0(%esi,%eiz,1),%esi
 1c8:	83 c0 01             	add    $0x1,%eax
 1cb:	80 3c 02 00          	cmpb   $0x0,(%edx,%eax,1)
 1cf:	89 c1                	mov    %eax,%ecx
 1d1:	75 f5                	jne    1c8 <strlen+0x18>
    ;
  return n;
}
 1d3:	89 c8                	mov    %ecx,%eax
 1d5:	5d                   	pop    %ebp
 1d6:	c3                   	ret    
 1d7:	8d b4 26 00 00 00 00 	lea    0x0(%esi,%eiz,1),%esi
 1de:	66 90                	xchg   %ax,%ax
  for(n = 0; s[n]; n++)
 1e0:	31 c9                	xor    %ecx,%ecx
}
 1e2:	5d                   	pop    %ebp
 1e3:	89 c8                	mov    %ecx,%eax
 1e5:	c3                   	ret    
 1e6:	8d b4 26 00 00 00 00 	lea    0x0(%esi,%eiz,1),%esi
 1ed:	8d 76 00             	lea    0x0(%esi),%esi

000001f0 <memset>:

void*
memset(void *dst, int c, uint n)
{
 1f0:	f3 0f 1e fb          	endbr32 
 1f4:	55                   	push   %ebp
 1f5:	89 e5                	mov    %esp,%ebp
 1f7:	57                   	push   %edi
 1f8:	8b 55 08             	mov    0x8(%ebp),%edx
}

static inline void
stosb(void *addr, int data, int cnt)
{
  asm volatile("cld; rep stosb" :
 1fb:	8b 4d 10             	mov    0x10(%ebp),%ecx
 1fe:	8b 45 0c             	mov    0xc(%ebp),%eax
 201:	89 d7                	mov    %edx,%edi
 203:	fc                   	cld    
 204:	f3 aa                	rep stos %al,%es:(%edi)
  stosb(dst, c, n);
  return dst;
}
 206:	8b 7d fc             	mov    -0x4(%ebp),%edi
 209:	89 d0                	mov    %edx,%eax
 20b:	c9                   	leave  
 20c:	c3                   	ret    
 20d:	8d 76 00             	lea    0x0(%esi),%esi

00000210 <strchr>:

char*
strchr(const char *s, char c)
{
 210:	f3 0f 1e fb          	endbr32 
 214:	55                   	push   %ebp
 215:	89 e5                	mov    %esp,%ebp
 217:	8b 45 08             	mov    0x8(%ebp),%eax
 21a:	0f b6 4d 0c          	movzbl 0xc(%ebp),%ecx
  for(; *s; s++)
 21e:	0f b6 10             	movzbl (%eax),%edx
 221:	84 d2                	test   %dl,%dl
 223:	75 16                	jne    23b <strchr+0x2b>
 225:	eb 21                	jmp    248 <strchr+0x38>
 227:	8d b4 26 00 00 00 00 	lea    0x0(%esi,%eiz,1),%esi
 22e:	66 90                	xchg   %ax,%ax
 230:	0f b6 50 01          	movzbl 0x1(%eax),%edx
 234:	83 c0 01             	add    $0x1,%eax
 237:	84 d2                	test   %dl,%dl
 239:	74 0d                	je     248 <strchr+0x38>
    if(*s == c)
 23b:	38 d1                	cmp    %dl,%cl
 23d:	75 f1                	jne    230 <strchr+0x20>
      return (char*)s;
  return 0;
}
 23f:	5d                   	pop    %ebp
 240:	c3                   	ret    
 241:	8d b4 26 00 00 00 00 	lea    0x0(%esi,%eiz,1),%esi
  return 0;
 248:	31 c0                	xor    %eax,%eax
}
 24a:	5d                   	pop    %ebp
 24b:	c3                   	ret    
 24c:	8d 74 26 00          	lea    0x0(%esi,%eiz,1),%esi

00000250 <gets>:

char*
gets(char *buf, int max)
{
 250:	f3 0f 1e fb          	endbr32 
 254:	55                   	push   %ebp
 255:	89 e5                	mov    %esp,%ebp
 257:	57                   	push   %edi
 258:	56                   	push   %esi
  int i, cc;
  char c;

  for(i=0; i+1 < max; ){
 259:	31 f6                	xor    %esi,%esi
{
 25b:	53                   	push   %ebx
 25c:	89 f3                	mov    %esi,%ebx
 25e:	83 ec 1c             	sub    $0x1c,%esp
 261:	8b 7d 08             	mov    0x8(%ebp),%edi
  for(i=0; i+1 < max; ){
 264:	eb 33                	jmp    299 <gets+0x49>
 266:	8d b4 26 00 00 00 00 	lea    0x0(%esi,%eiz,1),%esi
 26d:	8d 76 00             	lea    0x0(%esi),%esi
    cc = read(0, &c, 1);
 270:	83 ec 04             	sub    $0x4,%esp
 273:	8d 45 e7             	lea    -0x19(%ebp),%eax
 276:	6a 01                	push   $0x1
 278:	50                   	push   %eax
 279:	6a 00                	push   $0x0
 27b:	e8 2b 01 00 00       	call   3ab <read>
    if(cc < 1)
 280:	83 c4 10             	add    $0x10,%esp
 283:	85 c0                	test   %eax,%eax
 285:	7e 1c                	jle    2a3 <gets+0x53>
      break;
    buf[i++] = c;
 287:	0f b6 45 e7          	movzbl -0x19(%ebp),%eax
    if(c == '\n' || c == '\r')
 28b:	83 c7 01             	add    $0x1,%edi
    buf[i++] = c;
 28e:	88 47 ff             	mov    %al,-0x1(%edi)
    if(c == '\n' || c == '\r')
 291:	3c 0a                	cmp    $0xa,%al
 293:	74 23                	je     2b8 <gets+0x68>
 295:	3c 0d                	cmp    $0xd,%al
 297:	74 1f                	je     2b8 <gets+0x68>
  for(i=0; i+1 < max; ){
 299:	83 c3 01             	add    $0x1,%ebx
    buf[i++] = c;
 29c:	89 fe                	mov    %edi,%esi
  for(i=0; i+1 < max; ){
 29e:	3b 5d 0c             	cmp    0xc(%ebp),%ebx
 2a1:	7c cd                	jl     270 <gets+0x20>
 2a3:	89 f3                	mov    %esi,%ebx
      break;
  }
  buf[i] = '\0';
  return buf;
}
 2a5:	8b 45 08             	mov    0x8(%ebp),%eax
  buf[i] = '\0';
 2a8:	c6 03 00             	movb   $0x0,(%ebx)
}
 2ab:	8d 65 f4             	lea    -0xc(%ebp),%esp
 2ae:	5b                   	pop    %ebx
 2af:	5e                   	pop    %esi
 2b0:	5f                   	pop    %edi
 2b1:	5d                   	pop    %ebp
 2b2:	c3                   	ret    
 2b3:	8d 74 26 00          	lea    0x0(%esi,%eiz,1),%esi
 2b7:	90                   	nop
  buf[i] = '\0';
 2b8:	8b 75 08             	mov    0x8(%ebp),%esi
}
 2bb:	8b 45 08             	mov    0x8(%ebp),%eax
  buf[i] = '\0';
 2be:	01 de                	add    %ebx,%esi
 2c0:	89 f3                	mov    %esi,%ebx
 2c2:	c6 03 00             	movb   $0x0,(%ebx)
}
 2c5:	8d 65 f4             	lea    -0xc(%ebp),%esp
 2c8:	5b                   	pop    %ebx
 2c9:	5e                   	pop    %esi
 2ca:	5f                   	pop    %edi
 2cb:	5d                   	pop    %ebp
 2cc:	c3                   	ret    
 2cd:	8d 76 00             	lea    0x0(%esi),%esi

000002d0 <stat>:

int
stat(const char *n, struct stat *st)
{
 2d0:	f3 0f 1e fb          	endbr32 
 2d4:	55                   	push   %ebp
 2d5:	89 e5                	mov    %esp,%ebp
 2d7:	56                   	push   %esi
 2d8:	53                   	push   %ebx
  int fd;
  int r;

  fd = open(n, O_RDONLY);
 2d9:	83 ec 08             	sub    $0x8,%esp
 2dc:	6a 00                	push   $0x0
 2de:	ff 75 08             	pushl  0x8(%ebp)
 2e1:	e8 ed 00 00 00       	call   3d3 <open>
  if(fd < 0)
 2e6:	83 c4 10             	add    $0x10,%esp
 2e9:	85 c0                	test   %eax,%eax
 2eb:	78 2b                	js     318 <stat+0x48>
    return -1;
  r = fstat(fd, st);
 2ed:	83 ec 08             	sub    $0x8,%esp
 2f0:	ff 75 0c             	pushl  0xc(%ebp)
 2f3:	89 c3                	mov    %eax,%ebx
 2f5:	50                   	push   %eax
 2f6:	e8 f0 00 00 00       	call   3eb <fstat>
  close(fd);
 2fb:	89 1c 24             	mov    %ebx,(%esp)
  r = fstat(fd, st);
 2fe:	89 c6                	mov    %eax,%esi
  close(fd);
 300:	e8 b6 00 00 00       	call   3bb <close>
  return r;
 305:	83 c4 10             	add    $0x10,%esp
}
 308:	8d 65 f8             	lea    -0x8(%ebp),%esp
 30b:	89 f0                	mov    %esi,%eax
 30d:	5b                   	pop    %ebx
 30e:	5e                   	pop    %esi
 30f:	5d                   	pop    %ebp
 310:	c3                   	ret    
 311:	8d b4 26 00 00 00 00 	lea    0x0(%esi,%eiz,1),%esi
    return -1;
 318:	be ff ff ff ff       	mov    $0xffffffff,%esi
 31d:	eb e9                	jmp    308 <stat+0x38>
 31f:	90                   	nop

00000320 <atoi>:

int
atoi(const char *s)
{
 320:	f3 0f 1e fb          	endbr32 
 324:	55                   	push   %ebp
 325:	89 e5                	mov    %esp,%ebp
 327:	53                   	push   %ebx
 328:	8b 55 08             	mov    0x8(%ebp),%edx
  int n;

  n = 0;
  while('0' <= *s && *s <= '9')
 32b:	0f be 02             	movsbl (%edx),%eax
 32e:	8d 48 d0             	lea    -0x30(%eax),%ecx
 331:	80 f9 09             	cmp    $0x9,%cl
  n = 0;
 334:	b9 00 00 00 00       	mov    $0x0,%ecx
  while('0' <= *s && *s <= '9')
 339:	77 1a                	ja     355 <atoi+0x35>
 33b:	8d 74 26 00          	lea    0x0(%esi,%eiz,1),%esi
 33f:	90                   	nop
    n = n*10 + *s++ - '0';
 340:	83 c2 01             	add    $0x1,%edx
 343:	8d 0c 89             	lea    (%ecx,%ecx,4),%ecx
 346:	8d 4c 48 d0          	lea    -0x30(%eax,%ecx,2),%ecx
  while('0' <= *s && *s <= '9')
 34a:	0f be 02             	movsbl (%edx),%eax
 34d:	8d 58 d0             	lea    -0x30(%eax),%ebx
 350:	80 fb 09             	cmp    $0x9,%bl
 353:	76 eb                	jbe    340 <atoi+0x20>
  return n;
}
 355:	8b 5d fc             	mov    -0x4(%ebp),%ebx
 358:	89 c8                	mov    %ecx,%eax
 35a:	c9                   	leave  
 35b:	c3                   	ret    
 35c:	8d 74 26 00          	lea    0x0(%esi,%eiz,1),%esi

00000360 <memmove>:

void*
memmove(void *vdst, const void *vsrc, int n)
{
 360:	f3 0f 1e fb          	endbr32 
 364:	55                   	push   %ebp
 365:	89 e5                	mov    %esp,%ebp
 367:	57                   	push   %edi
 368:	8b 45 10             	mov    0x10(%ebp),%eax
 36b:	8b 55 08             	mov    0x8(%ebp),%edx
 36e:	56                   	push   %esi
 36f:	8b 75 0c             	mov    0xc(%ebp),%esi
  char *dst;
  const char *src;

  dst = vdst;
  src = vsrc;
  while(n-- > 0)
 372:	85 c0                	test   %eax,%eax
 374:	7e 0f                	jle    385 <memmove+0x25>
 376:	01 d0                	add    %edx,%eax
  dst = vdst;
 378:	89 d7                	mov    %edx,%edi
 37a:	8d b6 00 00 00 00    	lea    0x0(%esi),%esi
    *dst++ = *src++;
 380:	a4                   	movsb  %ds:(%esi),%es:(%edi)
  while(n-- > 0)
 381:	39 f8                	cmp    %edi,%eax
 383:	75 fb                	jne    380 <memmove+0x20>
  return vdst;
}
 385:	5e                   	pop    %esi
 386:	89 d0                	mov    %edx,%eax
 388:	5f                   	pop    %edi
 389:	5d                   	pop    %ebp
 38a:	c3                   	ret    

0000038b <fork>:
  name: \
    movl $SYS_ ## name, %eax; \
    int $T_SYSCALL; \
    ret

SYSCALL(fork)
 38b:	b8 01 00 00 00       	mov    $0x1,%eax
 390:	cd 40                	int    $0x40
 392:	c3                   	ret    

00000393 <exit>:
SYSCALL(exit)
 393:	b8 02 00 00 00       	mov    $0x2,%eax
 398:	cd 40                	int    $0x40
 39a:	c3                   	ret    

0000039b <wait>:
SYSCALL(wait)
 39b:	b8 03 00 00 00       	mov    $0x3,%eax
 3a0:	cd 40                	int    $0x40
 3a2:	c3                   	ret    

000003a3 <pipe>:
SYSCALL(pipe)
 3a3:	b8 04 00 00 00       	mov    $0x4,%eax
 3a8:	cd 40                	int    $0x40
 3aa:	c3                   	ret    

000003ab <read>:
SYSCALL(read)
 3ab:	b8 05 00 00 00       	mov    $0x5,%eax
 3b0:	cd 40                	int    $0x40
 3b2:	c3                   	ret    

000003b3 <write>:
SYSCALL(write)
 3b3:	b8 10 00 00 00       	mov    $0x10,%eax
 3b8:	cd 40                	int    $0x40
 3ba:	c3                   	ret    

000003bb <close>:
SYSCALL(close)
 3bb:	b8 15 00 00 00       	mov    $0x15,%eax
 3c0:	cd 40                	int    $0x40
 3c2:	c3                   	ret    

000003c3 <kill>:
SYSCALL(kill)
 3c3:	b8 06 00 00 00       	mov    $0x6,%eax
 3c8:	cd 40                	int    $0x40
 3ca:	c3                   	ret    

000003cb <exec>:
SYSCALL(exec)
 3cb:	b8 07 00 00 00       	mov    $0x7,%eax
 3d0:	cd 40                	int    $0x40
 3d2:	c3                   	ret    

000003d3 <open>:
SYSCALL(open)
 3d3:	b8 0f 00 00 00       	mov    $0xf,%eax
 3d8:	cd 40                	int    $0x40
 3da:	c3                   	ret    

000003db <mknod>:
SYSCALL(mknod)
 3db:	b8 11 00 00 00       	mov    $0x11,%eax
 3e0:	cd 40                	int    $0x40
 3e2:	c3                   	ret    

000003e3 <unlink>:
SYSCALL(unlink)
 3e3:	b8 12 00 00 00       	mov    $0x12,%eax
 3e8:	cd 40                	int    $0x40
 3ea:	c3                   	ret    

000003eb <fstat>:
SYSCALL(fstat)
 3eb:	b8 08 00 00 00       	mov    $0x8,%eax
 3f0:	cd 40                	int    $0x40
 3f2:	c3                   	ret    

000003f3 <link>:
SYSCALL(link)
 3f3:	b8 13 00 00 00       	mov    $0x13,%eax
 3f8:	cd 40                	int    $0x40
 3fa:	c3                   	ret    

000003fb <mkdir>:
SYSCALL(mkdir)
 3fb:	b8 14 00 00 00       	mov    $0x14,%eax
 400:	cd 40                	int    $0x40
 402:	c3                   	ret    

00000403 <chdir>:
SYSCALL(chdir)
 403:	b8 09 00 00 00       	mov    $0x9,%eax
 408:	cd 40                	int    $0x40
 40a:	c3                   	ret    

0000040b <dup>:
SYSCALL(dup)
 40b:	b8 0a 00 00 00       	mov    $0xa,%eax
 410:	cd 40                	int    $0x40
 412:	c3                   	ret    

00000413 <getpid>:
SYSCALL(getpid)
 413:	b8 0b 00 00 00       	mov    $0xb,%eax
 418:	cd 40                	int    $0x40
 41a:	c3                   	ret    

0000041b <sbrk>:
SYSCALL(sbrk)
 41b:	b8 0c 00 00 00       	mov    $0xc,%eax
 420:	cd 40                	int    $0x40
 422:	c3                   	ret    

00000423 <sleep>:
SYSCALL(sleep)
 423:	b8 0d 00 00 00       	mov    $0xd,%eax
 428:	cd 40                	int    $0x40
 42a:	c3                   	ret    

0000042b <uptime>:
SYSCALL(uptime)
 42b:	b8 0e 00 00 00       	mov    $0xe,%eax
 430:	cd 40                	int    $0x40
 432:	c3                   	ret    

00000433 <getreadcount>:
SYSCALL(getreadcount)#new syscall
 433:	b8 16 00 00 00       	mov    $0x16,%eax
 438:	cd 40                	int    $0x40
 43a:	c3                   	ret    
